target datalayout = "e-m:e-p270:32:32-p271:32:32-p272:64:64-i64:64-i128:128-f80:128-n8:16:32:64-S128"
target triple = "x86_64-unknown-linux-gnu"

%struct.NotifierList = type { %struct.anon.4 }
%struct.anon.4 = type { ptr }
%struct.QemuEvent = type { i32, i8 }
%struct.QemuThread = type { i64 }
%struct.QemuSemaphore = type { %struct.QemuMutex, %struct.QemuCond, i32 }
%struct.QemuMutex = type { %union.pthread_mutex_t, i8 }
%union.pthread_mutex_t = type { %struct.__pthread_mutex_s }
%struct.__pthread_mutex_s = type { i32, i32, i32, i32, i32, i16, i16, %struct.__pthread_internal_list }
%struct.__pthread_internal_list = type { ptr, ptr }
%struct.QemuCond = type { %union.pthread_cond_t, i8 }
%union.pthread_cond_t = type { %struct.__pthread_cond_s }
%struct.__pthread_cond_s = type { %union.__atomic_wide_counter, %union.__atomic_wide_counter, [2 x i32], [2 x i32], i32, i32, [2 x i32] }
%union.__atomic_wide_counter = type { i64 }
%struct.MigrationState = type { %struct.DeviceState, %struct.QemuThread, ptr, ptr, ptr, ptr, %struct.QemuSemaphore, ptr, %struct.QemuMutex, %struct.QemuSemaphore, i64, double, i64, i64, i64, %struct.MigrationParameters, i32, %struct.anon.2, double, i64, i64, i64, i64, i64, [23 x i8], i64, i32, i8, i8, i8, i8, %struct.QemuSemaphore, %struct.QemuSemaphore, %struct.QemuSemaphore, %struct.QemuEvent, i64, ptr, ptr, %struct.QemuMutex, i8, i8, i8, i8, %struct.QemuSemaphore, i8, i8, i8, i8, ptr, ptr, i8, i8 }
%struct.DeviceState = type { %struct.Object, ptr, ptr, i8, i8, i64, ptr, i32, i8, ptr, %struct.NamedGPIOListHead, %struct.NamedClockListHead, %struct.BusStateHead, i32, i32, i32, %struct.ResettableState, ptr, %struct.MemReentrancyGuard }
%struct.Object = type { ptr, ptr, ptr, i32, ptr }
%struct.NamedGPIOListHead = type { ptr }
%struct.NamedClockListHead = type { ptr }
%struct.BusStateHead = type { ptr }
%struct.ResettableState = type { i32, i8, i8 }
%struct.MemReentrancyGuard = type { i8 }
%struct.MigrationParameters = type { i8, i64, i8, i64, i8, i64, i8, i64, i8, i8, i8, i8, i8, i8, i8, i8, i8, i8, i8, i8, i8, i8, i8, i8, ptr, ptr, ptr, i8, i64, i8, i64, i8, i64, i8, i32, i8, i8, i8, i8, i8, i64, i8, i64, i8, i8, i8, i32, i8, i8, i8, i8, i8, ptr, i8, i64, i8, i64, i8, i32 }
%struct.anon.2 = type { ptr, %struct.QemuThread, i8, %struct.QemuSemaphore, %struct.QemuSemaphore }
%struct.YankInstance = type { i32, %union.anon }
%union.anon = type { %struct.YankInstanceBlockNode }
%struct.YankInstanceBlockNode = type { ptr }
%struct.timeval = type { i64, i64 }

@.str.2 = private unnamed_addr constant [30 x i8] c"../qemu/migration/migration.c\00", align 1
@qemu_mutex_lock_func = external global ptr, align 8
@migration_state_notifiers = internal global %struct.NotifierList zeroinitializer, align 8
@trace_events_enabled_count = external global i32, align 4
@message_with_timestamp = external global i8, align 1
@qemu_loglevel = external global i32, align 4
@__func__.migrate_fd_cleanup = private unnamed_addr constant [19 x i8] c"migrate_fd_cleanup\00", align 1
@.str.99 = private unnamed_addr constant [24 x i8] c"!migration_is_active(s)\00", align 1
@__PRETTY_FUNCTION__.migrate_fd_cleanup = private unnamed_addr constant [42 x i8] c"void migrate_fd_cleanup(MigrationState *)\00", align 1
@_TRACE_MIGRATE_FD_CLEANUP_DSTATE = external global i16, align 2
@.str.100 = private unnamed_addr constant [34 x i8] c"%d@%zu.%06zu:migrate_fd_cleanup \0A\00", align 1
@.str.101 = private unnamed_addr constant [21 x i8] c"migrate_fd_cleanup \0A\00", align 1

; Function Attrs: nounwind sspstrong uwtable
define internal zeroext i1 @qemu_loglevel_mask(i32 noundef %mask) #0 {
entry:
  %mask.addr = alloca i32, align 4
  store i32 %mask, ptr %mask.addr, align 4
  %0 = load i32, ptr @qemu_loglevel, align 4
  %1 = load i32, ptr %mask.addr, align 4
  %and = and i32 %0, %1
  %cmp = icmp ne i32 %and, 0
  ret i1 %cmp
}

; Function Attrs: nounwind sspstrong uwtable
define internal void @_nocheck__trace_migrate_fd_cleanup() #0 {
entry:
  %_now = alloca %struct.timeval, align 8
  %0 = load i32, ptr @trace_events_enabled_count, align 4
  %tobool = icmp ne i32 %0, 0
  %lnot = xor i1 %tobool, true
  %lnot1 = xor i1 %lnot, true
  %lnot.ext = zext i1 %lnot1 to i32
  %conv = sext i32 %lnot.ext to i64
  %tobool2 = icmp ne i64 %conv, 0
  br i1 %tobool2, label %land.lhs.true, label %if.end11

land.lhs.true:                                    ; preds = %entry
  %1 = load i16, ptr @_TRACE_MIGRATE_FD_CLEANUP_DSTATE, align 2
  %conv3 = zext i16 %1 to i32
  %tobool4 = icmp ne i32 %conv3, 0
  br i1 %tobool4, label %land.lhs.true5, label %if.end11

land.lhs.true5:                                   ; preds = %land.lhs.true
  %call = call zeroext i1 @qemu_loglevel_mask(i32 noundef 32768)
  br i1 %call, label %if.then, label %if.end11

if.then:                                          ; preds = %land.lhs.true5
  %2 = load i8, ptr @message_with_timestamp, align 1
  %tobool7 = trunc i8 %2 to i1
  br i1 %tobool7, label %if.then8, label %if.else

if.then8:                                         ; preds = %if.then
  %call9 = call i32 @gettimeofday(ptr noundef %_now, ptr noundef null) #18
  %call10 = call i32 @qemu_get_thread_id()
  %tv_sec = getelementptr inbounds %struct.timeval, ptr %_now, i32 0, i32 0
  %3 = load i64, ptr %tv_sec, align 8
  %tv_usec = getelementptr inbounds %struct.timeval, ptr %_now, i32 0, i32 1
  %4 = load i64, ptr %tv_usec, align 8
  call void (ptr, ...) @qemu_log(ptr noundef @.str.100, i32 noundef %call10, i64 noundef %3, i64 noundef %4)
  br label %if.end

if.else:                                          ; preds = %if.then
  call void (ptr, ...) @qemu_log(ptr noundef @.str.101)
  br label %if.end

if.end:                                           ; preds = %if.else, %if.then8
  br label %if.end11

if.end11:                                         ; preds = %if.end, %land.lhs.true5, %land.lhs.true, %entry
  ret void
}

; Function Attrs: nounwind sspstrong uwtable
define dso_local void @migration_call_notifiers(ptr noundef %s) #0 {
entry:
  %s.addr = alloca ptr, align 8
  store ptr %s, ptr %s.addr, align 8
  %0 = load ptr, ptr %s.addr, align 8
  call void @notifier_list_notify(ptr noundef @migration_state_notifiers, ptr noundef %0)
  ret void
}

; Function Attrs: nounwind sspstrong uwtable
define dso_local zeroext i1 @migration_is_active(ptr noundef %s) #0 {
entry:
  %s.addr = alloca ptr, align 8
  store ptr %s, ptr %s.addr, align 8
  %0 = load ptr, ptr %s.addr, align 8
  %state = getelementptr inbounds %struct.MigrationState, ptr %0, i32 0, i32 16
  %1 = load i32, ptr %state, align 8
  %cmp = icmp eq i32 %1, 4
  br i1 %cmp, label %lor.end, label %lor.rhs

lor.rhs:                                          ; preds = %entry
  %2 = load ptr, ptr %s.addr, align 8
  %state1 = getelementptr inbounds %struct.MigrationState, ptr %2, i32 0, i32 16
  %3 = load i32, ptr %state1, align 8
  %cmp2 = icmp eq i32 %3, 5
  br label %lor.end

lor.end:                                          ; preds = %lor.rhs, %entry
  %4 = phi i1 [ true, %entry ], [ %cmp2, %lor.rhs ]
  ret i1 %4
}

; Function Attrs: nounwind sspstrong uwtable
define internal void @trace_migrate_fd_cleanup() #0 {
entry:
  call void @_nocheck__trace_migrate_fd_cleanup()
  ret void
}

; Function Attrs: nounwind sspstrong uwtable
define internal void @migrate_fd_cleanup(ptr noundef %s) #0 {
entry:
  %s.addr = alloca ptr, align 8
  %tmp = alloca ptr, align 8
  %_f = alloca ptr, align 8
  %tmp7 = alloca ptr, align 8
  %atomic-temp = alloca ptr, align 8
  %.compoundliteral = alloca %struct.YankInstance, align 8
  store ptr %s, ptr %s.addr, align 8
  %0 = load ptr, ptr %s.addr, align 8
  %cleanup_bh = getelementptr inbounds %struct.MigrationState, ptr %0, i32 0, i32 3
  %1 = load ptr, ptr %cleanup_bh, align 8
  call void @qemu_bh_delete(ptr noundef %1)
  %2 = load ptr, ptr %s.addr, align 8
  %cleanup_bh1 = getelementptr inbounds %struct.MigrationState, ptr %2, i32 0, i32 3
  store ptr null, ptr %cleanup_bh1, align 8
  %3 = load ptr, ptr %s.addr, align 8
  %hostname = getelementptr inbounds %struct.MigrationState, ptr %3, i32 0, i32 48
  %4 = load ptr, ptr %hostname, align 8
  call void @g_free(ptr noundef %4)
  %5 = load ptr, ptr %s.addr, align 8
  %hostname2 = getelementptr inbounds %struct.MigrationState, ptr %5, i32 0, i32 48
  store ptr null, ptr %hostname2, align 8
  %6 = load ptr, ptr %s.addr, align 8
  %vmdesc = getelementptr inbounds %struct.MigrationState, ptr %6, i32 0, i32 49
  %7 = load ptr, ptr %vmdesc, align 8
  call void @json_writer_free(ptr noundef %7)
  %8 = load ptr, ptr %s.addr, align 8
  %vmdesc3 = getelementptr inbounds %struct.MigrationState, ptr %8, i32 0, i32 49
  store ptr null, ptr %vmdesc3, align 8
  call void @qemu_savevm_state_cleanup()
  %9 = load ptr, ptr %s.addr, align 8
  %to_dst_file = getelementptr inbounds %struct.MigrationState, ptr %9, i32 0, i32 4
  %10 = load ptr, ptr %to_dst_file, align 8
  %tobool = icmp ne ptr %10, null
  br i1 %tobool, label %if.then, label %if.end12

if.then:                                          ; preds = %entry
  call void @trace_migrate_fd_cleanup()
  call void @qemu_mutex_unlock_iothread()
  %11 = load ptr, ptr %s.addr, align 8
  %migration_thread_running = getelementptr inbounds %struct.MigrationState, ptr %11, i32 0, i32 29
  %12 = load i8, ptr %migration_thread_running, align 2
  %tobool4 = trunc i8 %12 to i1
  br i1 %tobool4, label %if.then5, label %if.end

if.then5:                                         ; preds = %if.then
  %13 = load ptr, ptr %s.addr, align 8
  %thread = getelementptr inbounds %struct.MigrationState, ptr %13, i32 0, i32 1
  %call = call ptr @qemu_thread_join(ptr noundef %thread)
  %14 = load ptr, ptr %s.addr, align 8
  %migration_thread_running6 = getelementptr inbounds %struct.MigrationState, ptr %14, i32 0, i32 29
  store i8 0, ptr %migration_thread_running6, align 2
  br label %if.end

if.end:                                           ; preds = %if.then5, %if.then
  call void @qemu_mutex_lock_iothread_impl(ptr noundef @.str.2, i32 noundef 1302)
  call void @multifd_save_cleanup()
  br label %while.cond

while.cond:                                       ; preds = %do.end, %if.end
  br i1 false, label %while.body, label %while.end

while.body:                                       ; preds = %while.cond
  br label %do.body

do.body:                                          ; preds = %while.body
  call void @g_assertion_message_expr(ptr noundef null, ptr noundef @.str.2, i32 noundef 1305, ptr noundef @__func__.migrate_fd_cleanup, ptr noundef null) #16
  unreachable

do.end:                                           ; No predecessors!
  br label %while.cond

while.end:                                        ; preds = %while.cond
  %15 = load atomic i64, ptr @qemu_mutex_lock_func monotonic, align 8
  store i64 %15, ptr %atomic-temp, align 8
  %16 = load ptr, ptr %atomic-temp, align 8
  store ptr %16, ptr %tmp7, align 8
  %17 = load ptr, ptr %tmp7, align 8
  store ptr %17, ptr %_f, align 8
  %18 = load ptr, ptr %_f, align 8
  %19 = load ptr, ptr %s.addr, align 8
  %qemu_file_lock = getelementptr inbounds %struct.MigrationState, ptr %19, i32 0, i32 8
  call void %18(ptr noundef %qemu_file_lock, ptr noundef @.str.2, i32 noundef 1305)
  %20 = load ptr, ptr %s.addr, align 8
  %to_dst_file8 = getelementptr inbounds %struct.MigrationState, ptr %20, i32 0, i32 4
  %21 = load ptr, ptr %to_dst_file8, align 8
  store ptr %21, ptr %tmp, align 8
  %22 = load ptr, ptr %s.addr, align 8
  %to_dst_file9 = getelementptr inbounds %struct.MigrationState, ptr %22, i32 0, i32 4
  store ptr null, ptr %to_dst_file9, align 8
  %23 = load ptr, ptr %s.addr, align 8
  %qemu_file_lock10 = getelementptr inbounds %struct.MigrationState, ptr %23, i32 0, i32 8
  call void @qemu_mutex_unlock_impl(ptr noundef %qemu_file_lock10, ptr noundef @.str.2, i32 noundef 1308)
  %24 = load ptr, ptr %tmp, align 8
  call void @migration_ioc_unregister_yank_from_file(ptr noundef %24)
  %25 = load ptr, ptr %tmp, align 8
  %call11 = call i32 @qemu_fclose(ptr noundef %25)
  br label %if.end12

if.end12:                                         ; preds = %while.end, %entry
  %26 = load ptr, ptr %s.addr, align 8
  %call13 = call zeroext i1 @close_return_path_on_source(ptr noundef %26)
  %27 = load ptr, ptr %s.addr, align 8
  %call14 = call zeroext i1 @migration_is_active(ptr noundef %27)
  br i1 %call14, label %if.else, label %if.then15

if.then15:                                        ; preds = %if.end12
  br label %if.end16

if.else:                                          ; preds = %if.end12
  call void @__assert_fail(ptr noundef @.str.99, ptr noundef @.str.2, i32 noundef 1323, ptr noundef @__PRETTY_FUNCTION__.migrate_fd_cleanup) #13
  unreachable

if.end16:                                         ; preds = %if.then15
  %28 = load ptr, ptr %s.addr, align 8
  %state = getelementptr inbounds %struct.MigrationState, ptr %28, i32 0, i32 16
  %29 = load i32, ptr %state, align 8
  %cmp = icmp eq i32 %29, 2
  br i1 %cmp, label %if.then17, label %if.end19

if.then17:                                        ; preds = %if.end16
  %30 = load ptr, ptr %s.addr, align 8
  %state18 = getelementptr inbounds %struct.MigrationState, ptr %30, i32 0, i32 16
  call void @migrate_set_state(ptr noundef %state18, i32 noundef 2, i32 noundef 3)
  br label %if.end19

if.end19:                                         ; preds = %if.then17, %if.end16
  %31 = load ptr, ptr %s.addr, align 8
  %error = getelementptr inbounds %struct.MigrationState, ptr %31, i32 0, i32 37
  %32 = load ptr, ptr %error, align 8
  %tobool20 = icmp ne ptr %32, null
  br i1 %tobool20, label %if.then21, label %if.end24

if.then21:                                        ; preds = %if.end19
  %33 = load ptr, ptr %s.addr, align 8
  %error22 = getelementptr inbounds %struct.MigrationState, ptr %33, i32 0, i32 37
  %34 = load ptr, ptr %error22, align 8
  %call23 = call ptr @error_copy(ptr noundef %34)
  call void @error_report_err(ptr noundef %call23)
  br label %if.end24

if.end24:                                         ; preds = %if.then21, %if.end19
  %35 = load ptr, ptr %s.addr, align 8
  call void @migration_call_notifiers(ptr noundef %35)
  call void @block_cleanup_parameters()
  %type = getelementptr inbounds %struct.YankInstance, ptr %.compoundliteral, i32 0, i32 0
  store i32 2, ptr %type, align 8
  %u = getelementptr inbounds %struct.YankInstance, ptr %.compoundliteral, i32 0, i32 1
  call void @llvm.memset.p0.i64(ptr align 8 %u, i8 0, i64 8, i1 false)
  call void @yank_unregister_instance(ptr noundef %.compoundliteral)
  ret void
}