; Function Attrs: nounwind sspstrong uwtable
define internal fastcc void @migrate_fd_cleanup(ptr noundef %s) unnamed_addr #0 {
entry:
  %_now.i.i = alloca %struct.timeval, align 8
  %.compoundliteral = alloca %struct.YankInstance, align 8
  %cleanup_bh = getelementptr inbounds nuw i8, ptr %s, i64 176
  %0 = load ptr, ptr %cleanup_bh, align 8
  tail call void @qemu_bh_delete(ptr noundef %0) #19
  store ptr null, ptr %cleanup_bh, align 8
  %hostname = getelementptr inbounds nuw i8, ptr %s, i64 1664
  %1 = load ptr, ptr %hostname, align 8
  tail call void @g_free(ptr noundef %1) #19
  store ptr null, ptr %hostname, align 8
  %vmdesc = getelementptr inbounds nuw i8, ptr %s, i64 1672
  %2 = load ptr, ptr %vmdesc, align 8
  tail call void @json_writer_free(ptr noundef %2) #19
  store ptr null, ptr %vmdesc, align 8
  tail call void @qemu_savevm_state_cleanup() #19
  %to_dst_file = getelementptr inbounds nuw i8, ptr %s, i64 184
  %3 = load ptr, ptr %to_dst_file, align 8
  %tobool.not = icmp eq ptr %3, null
  br i1 %tobool.not, label %if.end12, label %if.then

if.then:                                          ; preds = %entry
  call void @llvm.lifetime.start.p0(i64 16, ptr nonnull %_now.i.i)
  %4 = load i32, ptr @trace_events_enabled_count, align 4
  %tobool.i.i = icmp ne i32 %4, 0
  %5 = load i16, ptr @_TRACE_MIGRATE_FD_CLEANUP_DSTATE, align 2
  %tobool4.i.i = icmp ne i16 %5, 0
  %or.cond.i.i = select i1 %tobool.i.i, i1 %tobool4.i.i, i1 false
  br i1 %or.cond.i.i, label %land.lhs.true5.i.i, label %trace_migrate_fd_cleanup.exit

land.lhs.true5.i.i:                               ; preds = %if.then
  %6 = load i32, ptr @qemu_loglevel, align 4
  %and.i.i.i = and i32 %6, 32768
  %cmp.i.not.i.i = icmp eq i32 %and.i.i.i, 0
  br i1 %cmp.i.not.i.i, label %trace_migrate_fd_cleanup.exit, label %if.then.i.i

if.then.i.i:                                      ; preds = %land.lhs.true5.i.i
  %7 = load i8, ptr @message_with_timestamp, align 1
  %tobool7.i.i = trunc i8 %7 to i1
  br i1 %tobool7.i.i, label %if.then8.i.i, label %if.else.i.i

if.then8.i.i:                                     ; preds = %if.then.i.i
  %call9.i.i = call i32 @gettimeofday(ptr noundef nonnull %_now.i.i, ptr noundef null) #19
  %call10.i.i = tail call i32 @qemu_get_thread_id() #19
  %8 = load i64, ptr %_now.i.i, align 8
  %tv_usec.i.i = getelementptr inbounds nuw i8, ptr %_now.i.i, i64 8
  %9 = load i64, ptr %tv_usec.i.i, align 8
  tail call void (ptr, ...) @qemu_log(ptr noundef nonnull @.str.100, i32 noundef %call10.i.i, i64 noundef %8, i64 noundef %9) #19
  br label %trace_migrate_fd_cleanup.exit

if.else.i.i:                                      ; preds = %if.then.i.i
  tail call void (ptr, ...) @qemu_log(ptr noundef nonnull @.str.101) #19
  br label %trace_migrate_fd_cleanup.exit

trace_migrate_fd_cleanup.exit:                    ; preds = %if.then, %land.lhs.true5.i.i, %if.then8.i.i, %if.else.i.i
  call void @llvm.lifetime.end.p0(i64 16, ptr nonnull %_now.i.i)
  tail call void @qemu_mutex_unlock_iothread() #19
  %migration_thread_running = getelementptr inbounds nuw i8, ptr %s, i64 1118
  %10 = load i8, ptr %migration_thread_running, align 2
  %tobool4 = trunc i8 %10 to i1
  br i1 %tobool4, label %if.then5, label %if.end

if.then5:                                         ; preds = %trace_migrate_fd_cleanup.exit
  %thread = getelementptr inbounds nuw i8, ptr %s, i64 160
  %call = tail call ptr @qemu_thread_join(ptr noundef nonnull %thread) #19
  store i8 0, ptr %migration_thread_running, align 2
  br label %if.end

if.end:                                           ; preds = %if.then5, %trace_migrate_fd_cleanup.exit
  tail call void @qemu_mutex_lock_iothread_impl(ptr noundef nonnull @.str.2, i32 noundef 1302) #19
  tail call void @multifd_save_cleanup() #19
  %11 = load atomic i64, ptr @qemu_mutex_lock_func monotonic, align 8
  %12 = inttoptr i64 %11 to ptr
  %qemu_file_lock = getelementptr inbounds nuw i8, ptr %s, i64 320
  tail call void %12(ptr noundef nonnull %qemu_file_lock, ptr noundef nonnull @.str.2, i32 noundef 1305) #19
  %13 = load ptr, ptr %to_dst_file, align 8
  store ptr null, ptr %to_dst_file, align 8
  tail call void @qemu_mutex_unlock_impl(ptr noundef nonnull %qemu_file_lock, ptr noundef nonnull @.str.2, i32 noundef 1308) #19
  tail call void @migration_ioc_unregister_yank_from_file(ptr noundef %13) #19
  %call11 = tail call i32 @qemu_fclose(ptr noundef %13) #19
  br label %if.end12

if.end12:                                         ; preds = %if.end, %entry
  %call13 = tail call fastcc zeroext i1 @close_return_path_on_source(ptr noundef nonnull %s)
  %state.i = getelementptr inbounds nuw i8, ptr %s, i64 776
  %14 = load i32, ptr %state.i, align 8
  %15 = and i32 %14, -2
  %spec.select.i = icmp eq i32 %15, 4
  br i1 %spec.select.i, label %if.else, label %if.end16

if.else:                                          ; preds = %if.end12
  tail call void @__assert_fail(ptr noundef nonnull @.str.99, ptr noundef nonnull @.str.2, i32 noundef 1323, ptr noundef nonnull @__PRETTY_FUNCTION__.migrate_fd_cleanup) #20
  unreachable

if.end16:                                         ; preds = %if.end12
  %cmp = icmp eq i32 %14, 2
  br i1 %cmp, label %if.then17, label %if.end19

if.then17:                                        ; preds = %if.end16
  tail call void @migrate_set_state(ptr noundef nonnull %state.i, i32 noundef 2, i32 noundef 3)
  br label %if.end19

if.end19:                                         ; preds = %if.then17, %if.end16
  %error = getelementptr inbounds nuw i8, ptr %s, i64 1480
  %16 = load ptr, ptr %error, align 8
  %tobool20.not = icmp eq ptr %16, null
  br i1 %tobool20.not, label %if.end24, label %if.then21

if.then21:                                        ; preds = %if.end19
  %call23 = tail call ptr @error_copy(ptr noundef nonnull %16) #19
  tail call void @error_report_err(ptr noundef %call23) #19
  br label %if.end24

if.end24:                                         ; preds = %if.then21, %if.end19
  tail call void @notifier_list_notify(ptr noundef nonnull @migration_state_notifiers, ptr noundef nonnull %s) #19
  tail call void @block_cleanup_parameters() #19
  store i32 2, ptr %.compoundliteral, align 8
  %u = getelementptr inbounds nuw i8, ptr %.compoundliteral, i64 8
  store i64 0, ptr %u, align 8
  call void @yank_unregister_instance(ptr noundef nonnull %.compoundliteral) #19
  ret void
}